target datalayout = "e-m:e-p270:32:32-p271:32:32-p272:64:64-i64:64-i128:128-f80:128-n8:16:32:64-S128"
target triple = "x86_64-pc-linux-gnu"

%struct.AVTXContext = type { i32, i32, ptr, ptr, ptr, ptr, [4 x ptr], i32, [4 x ptr], ptr, i32, i64, i32, float, double, ptr }

; Function Attrs: nounwind uwtable
define internal void @ff_tx_mdct_naive_inv_float_c(ptr noundef %0, ptr noundef %1, ptr noundef %2, i64 noundef %3) #4 {
  %5 = alloca ptr, align 8
  %6 = alloca ptr, align 8
  %7 = alloca ptr, align 8
  %8 = alloca i64, align 8
  %9 = alloca ptr, align 8
  %10 = alloca ptr, align 8
  %11 = alloca double, align 8
  %12 = alloca i32, align 4
  %13 = alloca i32, align 4
  %14 = alloca double, align 8
  %15 = alloca i32, align 4
  %16 = alloca i32, align 4
  %17 = alloca double, align 8
  %18 = alloca double, align 8
  %19 = alloca double, align 8
  %20 = alloca double, align 8
  %21 = alloca i32, align 4
  %22 = alloca double, align 8
  %23 = alloca double, align 8
  %24 = alloca double, align 8
  %25 = alloca double, align 8
  store ptr %0, ptr %5, align 8, !tbaa !17
  store ptr %1, ptr %6, align 8, !tbaa !8
  store ptr %2, ptr %7, align 8, !tbaa !8
  store i64 %3, ptr %8, align 8, !tbaa !30
  call void @llvm.lifetime.start.p0(i64 8, ptr %9) #10
  %26 = load ptr, ptr %7, align 8, !tbaa !8
  store ptr %26, ptr %9, align 8, !tbaa !39
  call void @llvm.lifetime.start.p0(i64 8, ptr %10) #10
  %27 = load ptr, ptr %6, align 8, !tbaa !8
  store ptr %27, ptr %10, align 8, !tbaa !39
  call void @llvm.lifetime.start.p0(i64 8, ptr %11) #10
  %28 = load ptr, ptr %5, align 8, !tbaa !17
  %29 = getelementptr inbounds nuw %struct.AVTXContext, ptr %28, i32 0, i32 14
  %30 = load double, ptr %29, align 8, !tbaa !28
  store double %30, ptr %11, align 8, !tbaa !29
  call void @llvm.lifetime.start.p0(i64 4, ptr %12) #10
  %31 = load ptr, ptr %5, align 8, !tbaa !17
  %32 = getelementptr inbounds nuw %struct.AVTXContext, ptr %31, i32 0, i32 0
  %33 = load i32, ptr %32, align 8, !tbaa !21
  %34 = ashr i32 %33, 1
  store i32 %34, ptr %12, align 4, !tbaa !4
  call void @llvm.lifetime.start.p0(i64 4, ptr %13) #10
  %35 = load i32, ptr %12, align 4, !tbaa !4
  %36 = mul nsw i32 %35, 2
  store i32 %36, ptr %13, align 4, !tbaa !4
  call void @llvm.lifetime.start.p0(i64 8, ptr %14) #10
  %37 = load i32, ptr %13, align 4, !tbaa !4
  %38 = sitofp i32 %37 to double
  %39 = fmul nsz double 4.000000e+00, %38
  %40 = fdiv nsz double 0x400921FB54442D18, %39
  store double %40, ptr %14, align 8, !tbaa !29
  %41 = load i64, ptr %8, align 8, !tbaa !30
  %42 = udiv i64 %41, 4
  store i64 %42, ptr %8, align 8, !tbaa !30
  call void @llvm.lifetime.start.p0(i64 4, ptr %15) #10
  store i32 0, ptr %15, align 4, !tbaa !4
  br label %43

43:                                               ; preds = %125, %4
  %44 = load i32, ptr %15, align 4, !tbaa !4
  %45 = load i32, ptr %12, align 4, !tbaa !4
  %46 = icmp slt i32 %44, %45
  br i1 %46, label %48, label %47

47:                                               ; preds = %43
  store i32 2, ptr %16, align 4
  call void @llvm.lifetime.end.p0(i64 4, ptr %15) #10
  br label %128

48:                                               ; preds = %43
  call void @llvm.lifetime.start.p0(i64 8, ptr %17) #10
  store double 0.000000e+00, ptr %17, align 8, !tbaa !29
  call void @llvm.lifetime.start.p0(i64 8, ptr %18) #10
  store double 0.000000e+00, ptr %18, align 8, !tbaa !29
  call void @llvm.lifetime.start.p0(i64 8, ptr %19) #10
  %49 = load double, ptr %14, align 8, !tbaa !29
  %50 = load i32, ptr %12, align 4, !tbaa !4
  %51 = mul nsw i32 4, %50
  %52 = load i32, ptr %15, align 4, !tbaa !4
  %53 = mul nsw i32 2, %52
  %54 = sub nsw i32 %51, %53
  %55 = sub nsw i32 %54, 1
  %56 = sitofp i32 %55 to double
  %57 = fmul nsz double %49, %56
  store double %57, ptr %19, align 8, !tbaa !29
  call void @llvm.lifetime.start.p0(i64 8, ptr %20) #10
  %58 = load double, ptr %14, align 8, !tbaa !29
  %59 = load i32, ptr %13, align 4, !tbaa !4
  %60 = mul nsw i32 3, %59
  %61 = load i32, ptr %15, align 4, !tbaa !4
  %62 = mul nsw i32 2, %61
  %63 = add nsw i32 %60, %62
  %64 = add nsw i32 %63, 1
  %65 = sitofp i32 %64 to double
  %66 = fmul nsz double %58, %65
  store double %66, ptr %20, align 8, !tbaa !29
  call void @llvm.lifetime.start.p0(i64 4, ptr %21) #10
  store i32 0, ptr %21, align 4, !tbaa !4
  br label %67

67:                                               ; preds = %101, %48
  %68 = load i32, ptr %21, align 4, !tbaa !4
  %69 = load i32, ptr %13, align 4, !tbaa !4
  %70 = icmp slt i32 %68, %69
  br i1 %70, label %72, label %71

71:                                               ; preds = %67
  store i32 5, ptr %16, align 4
  call void @llvm.lifetime.end.p0(i64 4, ptr %21) #10
  br label %104

72:                                               ; preds = %67
  call void @llvm.lifetime.start.p0(i64 8, ptr %22) #10
  %73 = load i32, ptr %21, align 4, !tbaa !4
  %74 = mul nsw i32 2, %73
  %75 = add nsw i32 %74, 1
  %76 = sitofp i32 %75 to double
  store double %76, ptr %22, align 8, !tbaa !29
  call void @llvm.lifetime.start.p0(i64 8, ptr %23) #10
  %77 = load double, ptr %22, align 8, !tbaa !29
  %78 = load double, ptr %19, align 8, !tbaa !29
  %79 = fmul nsz double %77, %78
  %80 = call nsz double @llvm.cos.f64(double %79)
  store double %80, ptr %23, align 8, !tbaa !29
  call void @llvm.lifetime.start.p0(i64 8, ptr %24) #10
  %81 = load double, ptr %22, align 8, !tbaa !29
  %82 = load double, ptr %20, align 8, !tbaa !29
  %83 = fmul nsz double %81, %82
  %84 = call nsz double @llvm.cos.f64(double %83)
  store double %84, ptr %24, align 8, !tbaa !29
  call void @llvm.lifetime.start.p0(i64 8, ptr %25) #10
  %85 = load ptr, ptr %9, align 8, !tbaa !39
  %86 = load i32, ptr %21, align 4, !tbaa !4
  %87 = sext i32 %86 to i64
  %88 = load i64, ptr %8, align 8, !tbaa !30
  %89 = mul nsw i64 %87, %88
  %90 = getelementptr inbounds float, ptr %85, i64 %89
  %91 = load float, ptr %90, align 4, !tbaa !36
  %92 = fpext nsz float %91 to double
  store double %92, ptr %25, align 8, !tbaa !29
  %93 = load double, ptr %23, align 8, !tbaa !29
  %94 = load double, ptr %25, align 8, !tbaa !29
  %95 = load double, ptr %17, align 8, !tbaa !29
  %96 = call nsz double @llvm.fmuladd.f64(double %93, double %94, double %95)
  store double %96, ptr %17, align 8, !tbaa !29
  %97 = load double, ptr %24, align 8, !tbaa !29
  %98 = load double, ptr %25, align 8, !tbaa !29
  %99 = load double, ptr %18, align 8, !tbaa !29
  %100 = call nsz double @llvm.fmuladd.f64(double %97, double %98, double %99)
  store double %100, ptr %18, align 8, !tbaa !29
  call void @llvm.lifetime.end.p0(i64 8, ptr %25) #10
  call void @llvm.lifetime.end.p0(i64 8, ptr %24) #10
  call void @llvm.lifetime.end.p0(i64 8, ptr %23) #10
  call void @llvm.lifetime.end.p0(i64 8, ptr %22) #10
  br label %101

101:                                              ; preds = %72
  %102 = load i32, ptr %21, align 4, !tbaa !4
  %103 = add nsw i32 %102, 1
  store i32 %103, ptr %21, align 4, !tbaa !4
  br label %67, !llvm.loop !145

104:                                              ; preds = %71
  %105 = load double, ptr %17, align 8, !tbaa !29
  %106 = load double, ptr %11, align 8, !tbaa !29
  %107 = fmul nsz double %105, %106
  %108 = fptrunc nsz double %107 to float
  %109 = load ptr, ptr %10, align 8, !tbaa !39
  %110 = load i32, ptr %15, align 4, !tbaa !4
  %111 = add nsw i32 %110, 0
  %112 = sext i32 %111 to i64
  %113 = getelementptr inbounds float, ptr %109, i64 %112
  store float %108, ptr %113, align 4, !tbaa !36
  %114 = load double, ptr %18, align 8, !tbaa !29
  %115 = fneg nsz double %114
  %116 = load double, ptr %11, align 8, !tbaa !29
  %117 = fmul nsz double %115, %116
  %118 = fptrunc nsz double %117 to float
  %119 = load ptr, ptr %10, align 8, !tbaa !39
  %120 = load i32, ptr %15, align 4, !tbaa !4
  %121 = load i32, ptr %12, align 4, !tbaa !4
  %122 = add nsw i32 %120, %121
  %123 = sext i32 %122 to i64
  %124 = getelementptr inbounds float, ptr %119, i64 %123
  store float %118, ptr %124, align 4, !tbaa !36
  call void @llvm.lifetime.end.p0(i64 8, ptr %20) #10
  call void @llvm.lifetime.end.p0(i64 8, ptr %19) #10
  call void @llvm.lifetime.end.p0(i64 8, ptr %18) #10
  call void @llvm.lifetime.end.p0(i64 8, ptr %17) #10
  br label %125

125:                                              ; preds = %104
  %126 = load i32, ptr %15, align 4, !tbaa !4
  %127 = add nsw i32 %126, 1
  store i32 %127, ptr %15, align 4, !tbaa !4
  br label %43, !llvm.loop !146

128:                                              ; preds = %47
  call void @llvm.lifetime.end.p0(i64 8, ptr %14) #10
  call void @llvm.lifetime.end.p0(i64 4, ptr %13) #10
  call void @llvm.lifetime.end.p0(i64 4, ptr %12) #10
  call void @llvm.lifetime.end.p0(i64 8, ptr %11) #10
  call void @llvm.lifetime.end.p0(i64 8, ptr %10) #10
  call void @llvm.lifetime.end.p0(i64 8, ptr %9) #10
  ret void
}